; Function Attrs: mustprogress uwtable
define hidden void @_ZN2pb6solver9add_indexERNS_3pbcEjN3sat7literalE(ptr noundef nonnull align 8 dereferenceable(1049) %this, ptr nocapture noundef nonnull readonly align 8 dereferenceable(76) %p, i32 noundef %index, i32 %lit.coerce) local_unnamed_addr #3 align 2 {
entry:
  %vtable = load ptr, ptr %this, align 8
  %vfn = getelementptr inbounds i8, ptr %vtable, i64 520
  %0 = load ptr, ptr %vfn, align 8
  %call = tail call noundef i32 %0(ptr noundef nonnull align 8 dereferenceable(1049) %this, i32 %lit.coerce)
  %cmp = icmp eq i32 %call, 0
  br i1 %cmp, label %if.then, label %if.end10

if.then:                                          ; preds = %entry
  %m_pb_undef = getelementptr inbounds i8, ptr %this, i64 872
  %1 = load ptr, ptr %m_pb_undef, align 8
  %cmp.i = icmp eq ptr %1, null
  br i1 %cmp.i, label %if.then.i, label %lor.lhs.false.i

lor.lhs.false.i:                                  ; preds = %if.then
  %arrayidx.i = getelementptr inbounds i8, ptr %1, i64 -4
  %2 = load i32, ptr %arrayidx.i, align 4
  %arrayidx4.i = getelementptr inbounds i8, ptr %1, i64 -8
  %3 = load i32, ptr %arrayidx4.i, align 4
  %cmp5.i = icmp eq i32 %2, %3
  br i1 %cmp5.i, label %if.then.i, label %_ZN6vectorIjLb0EjE9push_backERKj.exit

if.then.i:                                        ; preds = %lor.lhs.false.i, %if.then
  tail call void @_ZN6vectorIjLb0EjE13expand_vectorEv(ptr noundef nonnull align 8 dereferenceable(8) %m_pb_undef)
  %.pre.i = load ptr, ptr %m_pb_undef, align 8
  %arrayidx8.phi.trans.insert.i = getelementptr inbounds i8, ptr %.pre.i, i64 -4
  %.pre1.i = load i32, ptr %arrayidx8.phi.trans.insert.i, align 4
  br label %_ZN6vectorIjLb0EjE9push_backERKj.exit

_ZN6vectorIjLb0EjE9push_backERKj.exit:            ; preds = %lor.lhs.false.i, %if.then.i
  %4 = phi i32 [ %.pre1.i, %if.then.i ], [ %2, %lor.lhs.false.i ]
  %5 = phi ptr [ %.pre.i, %if.then.i ], [ %1, %lor.lhs.false.i ]
  %idx.ext.i = zext i32 %4 to i64
  %add.ptr.i = getelementptr inbounds i32, ptr %5, i64 %idx.ext.i
  store i32 %index, ptr %add.ptr.i, align 4
  %6 = load ptr, ptr %m_pb_undef, align 8
  %arrayidx10.i = getelementptr inbounds i8, ptr %6, i64 -4
  %7 = load i32, ptr %arrayidx10.i, align 4
  %inc.i = add i32 %7, 1
  store i32 %inc.i, ptr %arrayidx10.i, align 4
  %m_wlits.i = getelementptr inbounds i8, ptr %p, i64 76
  %idxprom.i = zext i32 %index to i64
  %arrayidx.i2 = getelementptr inbounds [0 x %"struct.std::pair"], ptr %m_wlits.i, i64 0, i64 %idxprom.i
  %8 = load i32, ptr %arrayidx.i2, align 4
  %m_a_max = getelementptr inbounds i8, ptr %this, i64 992
  %9 = load i32, ptr %m_a_max, align 8
  %cmp5 = icmp ugt i32 %8, %9
  br i1 %cmp5, label %if.then6, label %if.end10

if.then6:                                         ; preds = %_ZN6vectorIjLb0EjE9push_backERKj.exit
  store i32 %8, ptr %m_a_max, align 8
  br label %if.end10

if.end10:                                         ; preds = %_ZN6vectorIjLb0EjE9push_backERKj.exit, %if.then6, %entry
  ret void
}